; Function Attrs: null_pointer_is_valid sspstrong uwtable
define hidden i32 @samr_dissect_struct_UserInfo23(ptr noundef %0, i32 noundef %1, ptr noundef %2, ptr noundef %3, ptr noundef %4, ptr noundef %5, i32 noundef %6, i32 %7) local_unnamed_addr #0 {
  %9 = getelementptr inbounds nuw i8, ptr %4, i64 64
  %10 = load ptr, ptr %9, align 8
  %11 = getelementptr inbounds nuw i8, ptr %10, i64 96
  %12 = load i32, ptr %11, align 8
  %13 = and i32 %12, 1
  %.not = icmp eq i32 %13, 0
  %14 = getelementptr inbounds nuw i8, ptr %4, i64 25
  %15 = load i8, ptr %14, align 1, !range !6, !noundef !7
  %16 = trunc nuw i8 %15 to i1
  br i1 %.not, label %22, label %17

17:                                               ; preds = %8
  %18 = and i32 %1, 7
  %.not41 = icmp eq i32 %18, 0
  %or.cond = or i1 %.not41, %16
  br i1 %or.cond, label %27, label %19

19:                                               ; preds = %17
  %20 = and i32 %1, -8
  %21 = add i32 %20, 8
  br label %27

22:                                               ; preds = %8
  %23 = and i32 %1, 3
  %.not40 = icmp eq i32 %23, 0
  %or.cond45 = or i1 %.not40, %16
  br i1 %or.cond45, label %27, label %24

24:                                               ; preds = %22
  %25 = and i32 %1, -4
  %26 = add i32 %25, 4
  br label %27

27:                                               ; preds = %22, %24, %17, %19
  %.0 = phi i32 [ %1, %17 ], [ %21, %19 ], [ %1, %22 ], [ %26, %24 ]
  %.not42 = icmp eq ptr %3, null
  br i1 %.not42, label %.thread, label %30

.thread:                                          ; preds = %27
  %28 = load i32, ptr @hf_samr_samr_UserInfo23_info, align 4
  %29 = tail call i32 @samr_dissect_struct_UserInfo21(ptr noundef %0, i32 noundef %.0, ptr noundef %2, ptr noundef null, ptr noundef %4, ptr noundef %5, i32 noundef %28, i32 poison)
  br label %41

30:                                               ; preds = %27
  %31 = tail call ptr @proto_tree_add_item(ptr noundef nonnull %3, i32 noundef %6, ptr noundef %0, i32 noundef %.0, i32 noundef -1, i32 noundef 0)
  %32 = load i32, ptr @ett_samr_samr_UserInfo23, align 4
  %33 = tail call ptr @proto_item_add_subtree(ptr noundef %31, i32 noundef %32)
  %34 = load i32, ptr @hf_samr_samr_UserInfo23_info, align 4
  %35 = tail call i32 @samr_dissect_struct_UserInfo21(ptr noundef %0, i32 noundef %.0, ptr noundef %2, ptr noundef %33, ptr noundef %4, ptr noundef %5, i32 noundef %34, i32 poison)
  %.not.i.i = icmp eq ptr %33, null
  br i1 %.not.i.i, label %41, label %36

36:                                               ; preds = %30
  %37 = load i32, ptr @hf_samr_samr_UserInfo23_password, align 4
  %38 = tail call ptr @proto_tree_add_item(ptr noundef nonnull %33, i32 noundef %37, ptr noundef %0, i32 noundef %35, i32 noundef -1, i32 noundef 0)
  %39 = load i32, ptr @ett_samr_samr_CryptPassword, align 4
  %40 = tail call ptr @proto_item_add_subtree(ptr noundef %38, i32 noundef %39)
  br label %41

41:                                               ; preds = %.thread, %36, %30
  %42 = phi i32 [ %35, %36 ], [ %35, %30 ], [ %29, %.thread ]
  %.03850 = phi ptr [ %31, %36 ], [ %31, %30 ], [ null, %.thread ]
  %.016.i.i = phi ptr [ %38, %36 ], [ null, %30 ], [ null, %.thread ]
  %.0.i.i = phi ptr [ %40, %36 ], [ null, %30 ], [ null, %.thread ]
  br label %43

43:                                               ; preds = %43, %41
  %.010.i.i.i = phi i32 [ 0, %41 ], [ %46, %43 ]
  %.089.i.i.i = phi i32 [ %42, %41 ], [ %45, %43 ]
  %44 = load i32, ptr @hf_samr_samr_CryptPassword_data, align 4
  %45 = tail call i32 @PIDL_dissect_uint8(ptr noundef %0, i32 noundef %.089.i.i.i, ptr noundef %2, ptr noundef %.0.i.i, ptr noundef %4, ptr noundef %5, i32 noundef %44, i32 noundef 0)
  %46 = add nuw nsw i32 %.010.i.i.i, 1
  %exitcond.not.i.i.i = icmp eq i32 %46, 516
  br i1 %exitcond.not.i.i.i, label %samr_dissect_element_UserInfo23_password.exit, label %43, !llvm.loop !10

samr_dissect_element_UserInfo23_password.exit:    ; preds = %43
  %47 = sub i32 %45, %42
  tail call void @proto_item_set_len(ptr noundef %.016.i.i, i32 noundef %47)
  %48 = sub i32 %45, %.0
  tail call void @proto_item_set_len(ptr noundef %.03850, i32 noundef %48)
  %49 = load ptr, ptr %9, align 8
  %50 = getelementptr inbounds nuw i8, ptr %49, i64 96
  %51 = load i32, ptr %50, align 8
  %52 = and i32 %51, 1
  %.not43 = icmp eq i32 %52, 0
  br i1 %.not43, label %61, label %53

53:                                               ; preds = %samr_dissect_element_UserInfo23_password.exit
  %54 = getelementptr inbounds nuw i8, ptr %4, i64 25
  %55 = load i8, ptr %54, align 1, !range !6, !noundef !7
  %56 = trunc nuw i8 %55 to i1
  %57 = and i32 %45, 7
  %.not44 = icmp eq i32 %57, 0
  %or.cond46 = or i1 %.not44, %56
  br i1 %or.cond46, label %61, label %58

58:                                               ; preds = %53
  %59 = and i32 %45, -8
  %60 = add i32 %59, 8
  br label %61

61:                                               ; preds = %58, %53, %samr_dissect_element_UserInfo23_password.exit
  %.1 = phi i32 [ %45, %53 ], [ %60, %58 ], [ %45, %samr_dissect_element_UserInfo23_password.exit ]
  ret i32 %.1
}